; Function Attrs: null_pointer_is_valid sspstrong uwtable
define internal noundef i32 @IWbemServices_dissect_element_GetObject_ppCallResult__(ptr noundef %0, i32 noundef returned %1, ptr readnone captures(none) %2, ptr noundef %3, ptr readnone captures(none) %4, ptr readnone captures(none) %5) #0 {
  %.not.i = icmp eq ptr %3, null
  br i1 %.not.i, label %IWbemServices_dissect_struct_IWbemCallResult.exit, label %7

7:                                                ; preds = %6
  %8 = load i32, ptr @hf_IWbemServices_GetObject_ppCallResult, align 4
  %9 = tail call ptr @proto_tree_add_item(ptr noundef nonnull %3, i32 noundef %8, ptr noundef %0, i32 noundef %1, i32 noundef -1, i32 noundef 0)
  br label %IWbemServices_dissect_struct_IWbemCallResult.exit

IWbemServices_dissect_struct_IWbemCallResult.exit: ; preds = %6, %7
  %.0.i = phi ptr [ %9, %7 ], [ null, %6 ]
  tail call void @proto_item_set_len(ptr noundef %.0.i, i32 noundef 0)
  ret i32 %1
}